target datalayout = "e-m:e-p270:32:32-p271:32:32-p272:64:64-i64:64-i128:128-f80:128-n8:16:32:64-S128"
target triple = "x86_64-pc-linux-gnu"

%struct._PyPathConfig = type { ptr, ptr, ptr, ptr, ptr, ptr, ptr, ptr, i32 }

@_Py_path_config = hidden global { ptr, ptr, ptr, ptr, ptr, ptr, ptr, ptr, i32, [4 x i8] } zeroinitializer, align 8

; Function Attrs: nounwind uwtable
define hidden ptr @_Py_GetStdlibDir() #0 {
  %1 = alloca ptr, align 8
  %2 = alloca ptr, align 8
  %3 = alloca i32, align 4
  call void @llvm.lifetime.start.p0(i64 8, ptr %2) #9
  %4 = load ptr, ptr getelementptr inbounds nuw (%struct._PyPathConfig, ptr @_Py_path_config, i32 0, i32 3), align 8, !tbaa !14
  store ptr %4, ptr %2, align 8, !tbaa !41
  %5 = load ptr, ptr %2, align 8, !tbaa !41
  %6 = icmp ne ptr %5, null
  br i1 %6, label %7, label %14

7:                                                ; preds = %0
  %8 = load ptr, ptr %2, align 8, !tbaa !41
  %9 = getelementptr i32, ptr %8, i64 0
  %10 = load i32, ptr %9, align 4, !tbaa !27
  %11 = icmp ne i32 %10, 0
  br i1 %11, label %12, label %14

12:                                               ; preds = %7
  %13 = load ptr, ptr %2, align 8, !tbaa !41
  store ptr %13, ptr %1, align 8
  store i32 1, ptr %3, align 4
  br label %15

14:                                               ; preds = %7, %0
  store ptr null, ptr %1, align 8
  store i32 1, ptr %3, align 4
  br label %15

15:                                               ; preds = %14, %12
  call void @llvm.lifetime.end.p0(i64 8, ptr %2) #9
  %16 = load ptr, ptr %1, align 8
  ret ptr %16
}