; Function Attrs: mustprogress nofree norecurse nosync nounwind willreturn memory(read, inaccessiblemem: none) uwtable
define hidden ptr @_Py_GetStdlibDir() local_unnamed_addr #10 {
  %1 = load ptr, ptr getelementptr inbounds nuw (i8, ptr @_Py_path_config, i64 24), align 8, !tbaa !14
  %.not = icmp eq ptr %1, null
  br i1 %.not, label %4, label %2

2:                                                ; preds = %0
  %3 = load i32, ptr %1, align 4, !tbaa !29
  %.not5 = icmp eq i32 %3, 0
  br i1 %.not5, label %4, label %5

4:                                                ; preds = %2, %0
  br label %5

5:                                                ; preds = %2, %4
  %.0 = phi ptr [ null, %4 ], [ %1, %2 ]
  ret ptr %.0
}